target datalayout = "e-m:e-p270:32:32-p271:32:32-p272:64:64-i64:64-i128:128-f80:128-n8:16:32:64-S128"
target triple = "x86_64-unknown-linux-gnu"

; Function Attrs: mustprogress nounwind uwtable
define hidden noundef double @_ZN6hermes2vm11dayFromYearEd(double noundef %y) #0 {
entry:
  %y.addr = alloca double, align 8
  store double %y, ptr %y.addr, align 8
  %0 = load double, ptr %y.addr, align 8
  %sub = fsub double %0, 1.970000e+03
  %1 = load double, ptr %y.addr, align 8
  %sub1 = fsub double %1, 1.969000e+03
  %div = fdiv double %sub1, 4.000000e+00
  %2 = call double @llvm.floor.f64(double %div)
  %3 = call double @llvm.fmuladd.f64(double 3.650000e+02, double %sub, double %2)
  %4 = load double, ptr %y.addr, align 8
  %sub2 = fsub double %4, 1.901000e+03
  %div3 = fdiv double %sub2, 1.000000e+02
  %5 = call double @llvm.floor.f64(double %div3)
  %sub4 = fsub double %3, %5
  %6 = load double, ptr %y.addr, align 8
  %sub5 = fsub double %6, 1.601000e+03
  %div6 = fdiv double %sub5, 4.000000e+02
  %7 = call double @llvm.floor.f64(double %div6)
  %add = fadd double %sub4, %7
  ret double %add
}