; Function Attrs: mustprogress nofree norecurse nosync nounwind willreturn memory(none) uwtable
define hidden noundef double @_ZN6hermes2vm11dayFromYearEd(double noundef %y) local_unnamed_addr #2 {
entry:
  %sub = fadd double %y, -1.970000e+03
  %sub1 = fadd double %y, -1.969000e+03
  %div = fmul double %sub1, 2.500000e-01
  %0 = tail call double @llvm.floor.f64(double %div)
  %1 = tail call double @llvm.fmuladd.f64(double %sub, double 3.650000e+02, double %0)
  %sub2 = fadd double %y, -1.901000e+03
  %div3 = fdiv double %sub2, 1.000000e+02
  %2 = tail call double @llvm.floor.f64(double %div3)
  %sub4 = fsub double %1, %2
  %sub5 = fadd double %y, -1.601000e+03
  %div6 = fdiv double %sub5, 4.000000e+02
  %3 = tail call double @llvm.floor.f64(double %div6)
  %add = fadd double %3, %sub4
  ret double %add
}